target datalayout = "e-m:e-p270:32:32-p271:32:32-p272:64:64-i64:64-i128:128-f80:128-n8:16:32:64-S128"
target triple = "x86_64-pc-linux-gnu"

%struct.register_reassembly_table = type { ptr, ptr }
%struct.reassembly_table = type { ptr, ptr, ptr, ptr, ptr }

; Function Attrs: null_pointer_is_valid sspstrong uwtable
define void @reassembly_table_destroy(ptr noundef %0) #1 {
  %2 = alloca ptr, align 8
  store ptr %0, ptr %2, align 8
  %3 = load ptr, ptr %2, align 8
  %4 = getelementptr inbounds nuw %struct.reassembly_table, ptr %3, i32 0, i32 2
  store ptr null, ptr %4, align 8
  %5 = load ptr, ptr %2, align 8
  %6 = getelementptr inbounds nuw %struct.reassembly_table, ptr %5, i32 0, i32 3
  store ptr null, ptr %6, align 8
  %7 = load ptr, ptr %2, align 8
  %8 = getelementptr inbounds nuw %struct.reassembly_table, ptr %7, i32 0, i32 4
  store ptr null, ptr %8, align 8
  %9 = load ptr, ptr %2, align 8
  %10 = getelementptr inbounds nuw %struct.reassembly_table, ptr %9, i32 0, i32 0
  %11 = load ptr, ptr %10, align 8
  %12 = icmp ne ptr %11, null
  br i1 %12, label %13, label %23

13:                                               ; preds = %1
  %14 = load ptr, ptr %2, align 8
  %15 = getelementptr inbounds nuw %struct.reassembly_table, ptr %14, i32 0, i32 0
  %16 = load ptr, ptr %15, align 8
  %17 = call i32 @g_hash_table_foreach_remove(ptr noundef %16, ptr noundef @free_all_fragments, ptr noundef null)
  %18 = load ptr, ptr %2, align 8
  %19 = getelementptr inbounds nuw %struct.reassembly_table, ptr %18, i32 0, i32 0
  %20 = load ptr, ptr %19, align 8
  call void @g_hash_table_destroy(ptr noundef %20)
  %21 = load ptr, ptr %2, align 8
  %22 = getelementptr inbounds nuw %struct.reassembly_table, ptr %21, i32 0, i32 0
  store ptr null, ptr %22, align 8
  br label %23

23:                                               ; preds = %13, %1
  %24 = load ptr, ptr %2, align 8
  %25 = getelementptr inbounds nuw %struct.reassembly_table, ptr %24, i32 0, i32 1
  %26 = load ptr, ptr %25, align 8
  %27 = icmp ne ptr %26, null
  br i1 %27, label %28, label %37

28:                                               ; preds = %23
  %29 = load ptr, ptr %2, align 8
  %30 = getelementptr inbounds nuw %struct.reassembly_table, ptr %29, i32 0, i32 1
  %31 = load ptr, ptr %30, align 8
  call void @g_hash_table_remove_all(ptr noundef %31)
  %32 = load ptr, ptr %2, align 8
  %33 = getelementptr inbounds nuw %struct.reassembly_table, ptr %32, i32 0, i32 1
  %34 = load ptr, ptr %33, align 8
  call void @g_hash_table_destroy(ptr noundef %34)
  %35 = load ptr, ptr %2, align 8
  %36 = getelementptr inbounds nuw %struct.reassembly_table, ptr %35, i32 0, i32 1
  store ptr null, ptr %36, align 8
  br label %37

37:                                               ; preds = %28, %23
  ret void
}

; Function Attrs: null_pointer_is_valid sspstrong uwtable
define internal void @reassembly_table_free(ptr noundef %0, ptr noundef %1) #1 {
  %3 = alloca ptr, align 8
  %4 = alloca ptr, align 8
  %5 = alloca ptr, align 8
  store ptr %0, ptr %3, align 8
  store ptr %1, ptr %4, align 8
  call void @llvm.lifetime.start.p0(i64 8, ptr %5) #16
  %6 = load ptr, ptr %3, align 8
  store ptr %6, ptr %5, align 8
  %7 = load ptr, ptr %5, align 8
  %8 = getelementptr inbounds nuw %struct.register_reassembly_table, ptr %7, i32 0, i32 0
  %9 = load ptr, ptr %8, align 8
  call void @reassembly_table_destroy(ptr noundef %9)
  %10 = load ptr, ptr %5, align 8
  call void @g_free(ptr noundef %10)
  call void @llvm.lifetime.end.p0(i64 8, ptr %5) #16
  ret void
}