; Function Attrs: null_pointer_is_valid sspstrong uwtable
define internal void @reassembly_table_free(ptr noundef %0, ptr readnone captures(none) %1) #2 {
  %3 = load ptr, ptr %0, align 8
  %4 = getelementptr inbounds nuw i8, ptr %3, i64 16
  tail call void @llvm.memset.p0.i64(ptr noundef nonnull align 8 dereferenceable(24) %4, i8 0, i64 24, i1 false)
  %5 = load ptr, ptr %3, align 8
  %.not.i = icmp eq ptr %5, null
  br i1 %.not.i, label %9, label %6

6:                                                ; preds = %2
  %7 = tail call i32 @g_hash_table_foreach_remove(ptr noundef nonnull %5, ptr noundef nonnull @free_all_fragments, ptr noundef null)
  %8 = load ptr, ptr %3, align 8
  tail call void @g_hash_table_destroy(ptr noundef %8)
  store ptr null, ptr %3, align 8
  br label %9

9:                                                ; preds = %6, %2
  %10 = getelementptr inbounds nuw i8, ptr %3, i64 8
  %11 = load ptr, ptr %10, align 8
  %.not12.i = icmp eq ptr %11, null
  br i1 %.not12.i, label %reassembly_table_destroy.exit, label %12

12:                                               ; preds = %9
  tail call void @g_hash_table_remove_all(ptr noundef nonnull %11)
  %13 = load ptr, ptr %10, align 8
  tail call void @g_hash_table_destroy(ptr noundef %13)
  store ptr null, ptr %10, align 8
  br label %reassembly_table_destroy.exit

reassembly_table_destroy.exit:                    ; preds = %9, %12
  tail call void @g_free(ptr noundef %0)
  ret void
}